target datalayout = "e-m:e-p270:32:32-p271:32:32-p272:64:64-i64:64-i128:128-f80:128-n8:16:32:64-S128"
target triple = "x86_64-pc-linux-gnu"

@hf_generic_family = internal global i32 0, align 4
@hf_generic_version = internal global i32 0, align 4
@hf_generic_dll_version = internal global i32 0, align 4
@ett_generic_clientready = internal global i32 0, align 4
@ett_generic_clientready_item = internal global i32 0, align 4
@.str.749 = private unnamed_addr constant [19 x i8] c"Supported services\00", align 1

; Function Attrs: null_pointer_is_valid sspstrong uwtable
define internal i32 @dissect_aim_generic_clientready(ptr noundef %0, ptr noundef %1, ptr noundef %2) #0 {
  %4 = alloca ptr, align 8
  %5 = alloca ptr, align 8
  %6 = alloca ptr, align 8
  %7 = alloca i32, align 4
  %8 = alloca ptr, align 8
  %9 = alloca ptr, align 8
  %10 = alloca ptr, align 8
  store ptr %0, ptr %4, align 8
  store ptr %1, ptr %5, align 8
  store ptr %2, ptr %6, align 8
  call void @llvm.lifetime.start.p0(i64 4, ptr %7) #13
  store i32 0, ptr %7, align 4
  call void @llvm.lifetime.start.p0(i64 8, ptr %8) #13
  %11 = load ptr, ptr %6, align 8
  %12 = load ptr, ptr %4, align 8
  %13 = load i32, ptr @ett_generic_clientready, align 4
  %14 = call ptr @proto_tree_add_subtree(ptr noundef %11, ptr noundef %12, i32 noundef 0, i32 noundef -1, i32 noundef %13, ptr noundef null, ptr noundef @.str.749)
  store ptr %14, ptr %8, align 8
  br label %15

15:                                               ; preds = %20, %3
  %16 = load ptr, ptr %4, align 8
  %17 = load i32, ptr %7, align 4
  %18 = call i32 @tvb_reported_length_remaining(ptr noundef %16, i32 noundef %17)
  %19 = icmp sgt i32 %18, 0
  br i1 %19, label %20, label %46

20:                                               ; preds = %15
  call void @llvm.lifetime.start.p0(i64 8, ptr %9) #13
  call void @llvm.lifetime.start.p0(i64 8, ptr %10) #13
  %21 = load ptr, ptr %8, align 8
  %22 = load i32, ptr @hf_generic_family, align 4
  %23 = load ptr, ptr %4, align 8
  %24 = load i32, ptr %7, align 4
  %25 = call ptr @proto_tree_add_item(ptr noundef %21, i32 noundef %22, ptr noundef %23, i32 noundef %24, i32 noundef 2, i32 noundef 0)
  store ptr %25, ptr %9, align 8
  %26 = load ptr, ptr %9, align 8
  %27 = load i32, ptr @ett_generic_clientready_item, align 4
  %28 = call ptr @proto_item_add_subtree(ptr noundef %26, i32 noundef %27)
  store ptr %28, ptr %10, align 8
  %29 = load i32, ptr %7, align 4
  %30 = add i32 %29, 2
  store i32 %30, ptr %7, align 4
  %31 = load ptr, ptr %10, align 8
  %32 = load i32, ptr @hf_generic_version, align 4
  %33 = load ptr, ptr %4, align 8
  %34 = load i32, ptr %7, align 4
  %35 = call ptr @proto_tree_add_item(ptr noundef %31, i32 noundef %32, ptr noundef %33, i32 noundef %34, i32 noundef 2, i32 noundef 0)
  %36 = load i32, ptr %7, align 4
  %37 = add i32 %36, 2
  store i32 %37, ptr %7, align 4
  %38 = load ptr, ptr %10, align 8
  %39 = load i32, ptr @hf_generic_dll_version, align 4
  %40 = load ptr, ptr %4, align 8
  %41 = load i32, ptr %7, align 4
  %42 = call ptr @proto_tree_add_item(ptr noundef %38, i32 noundef %39, ptr noundef %40, i32 noundef %41, i32 noundef 3, i32 noundef 0)
  %43 = load i32, ptr %7, align 4
  %44 = add i32 %43, 4
  store i32 %44, ptr %7, align 4
  %45 = load ptr, ptr %9, align 8
  call void @proto_item_set_len(ptr noundef %45, i32 noundef 8)
  call void @llvm.lifetime.end.p0(i64 8, ptr %10) #13
  call void @llvm.lifetime.end.p0(i64 8, ptr %9) #13
  br label %15, !llvm.loop !25

46:                                               ; preds = %15
  %47 = load i32, ptr %7, align 4
  call void @llvm.lifetime.end.p0(i64 8, ptr %8) #13
  call void @llvm.lifetime.end.p0(i64 4, ptr %7) #13
  ret i32 %47
}