; Function Attrs: null_pointer_is_valid sspstrong uwtable
define internal noundef i32 @dissect_aim_generic_clientready(ptr noundef %0, ptr readnone captures(none) %1, ptr noundef %2) #0 {
  %4 = load i32, ptr @ett_generic_clientready, align 4
  %5 = tail call ptr @proto_tree_add_subtree(ptr noundef %2, ptr noundef %0, i32 noundef 0, i32 noundef -1, i32 noundef %4, ptr noundef null, ptr noundef nonnull @.str.749)
  %6 = tail call i32 @tvb_reported_length_remaining(ptr noundef %0, i32 noundef 0)
  %7 = icmp sgt i32 %6, 0
  br i1 %7, label %.lr.ph, label %._crit_edge

.lr.ph:                                           ; preds = %3, %.lr.ph
  %.018 = phi i32 [ %18, %.lr.ph ], [ 0, %3 ]
  %8 = load i32, ptr @hf_generic_family, align 4
  %9 = tail call ptr @proto_tree_add_item(ptr noundef %5, i32 noundef %8, ptr noundef %0, i32 noundef %.018, i32 noundef 2, i32 noundef 0)
  %10 = load i32, ptr @ett_generic_clientready_item, align 4
  %11 = tail call ptr @proto_item_add_subtree(ptr noundef %9, i32 noundef %10)
  %12 = or disjoint i32 %.018, 2
  %13 = load i32, ptr @hf_generic_version, align 4
  %14 = tail call ptr @proto_tree_add_item(ptr noundef %11, i32 noundef %13, ptr noundef %0, i32 noundef %12, i32 noundef 2, i32 noundef 0)
  %15 = or disjoint i32 %.018, 4
  %16 = load i32, ptr @hf_generic_dll_version, align 4
  %17 = tail call ptr @proto_tree_add_item(ptr noundef %11, i32 noundef %16, ptr noundef %0, i32 noundef %15, i32 noundef 3, i32 noundef 0)
  %18 = add i32 %.018, 8
  tail call void @proto_item_set_len(ptr noundef %9, i32 noundef 8)
  %19 = tail call i32 @tvb_reported_length_remaining(ptr noundef %0, i32 noundef %18)
  %20 = icmp sgt i32 %19, 0
  br i1 %20, label %.lr.ph, label %._crit_edge, !llvm.loop !24

._crit_edge:                                      ; preds = %.lr.ph, %3
  %.0.lcssa = phi i32 [ 0, %3 ], [ %18, %.lr.ph ]
  ret i32 %.0.lcssa
}